#include <math.h>
#include <stdio.h>
#include <stdlib.h>
#include <string.h>

int main()
{
 int n;
 int result=0;
 scanf("%d",&n);
 for (int i=1;i<= n;i++){
	 if (i%7!=0) {
      for (int k=i;k>0;k/=10){
          if (k%10==7) break;
          if(k/10==0){
             result+=i*i;
		  }
	  }
	 }
 }
 printf("%d",result);
 return 0;
}
