; ModuleID = '30/2097.c'
source_filename = "30/2097.c"
target datalayout = "e-m:e-p270:32:32-p271:32:32-p272:64:64-i64:64-f80:128-n8:16:32:64-S128"
target triple = "x86_64-pc-linux-gnu"

@.str = private unnamed_addr constant [3 x i8] c"%d\00", align 1

; Function Attrs: noinline nounwind uwtable
define dso_local i32 @main() #0 {
  %1 = alloca i32, align 4
  %2 = alloca i32, align 4
  %3 = alloca i32, align 4
  %4 = alloca i32, align 4
  %5 = alloca i32, align 4
  store i32 0, i32* %1, align 4
  store i32 0, i32* %3, align 4
  %6 = call i32 (i8*, ...) @__isoc99_scanf(i8* getelementptr inbounds ([3 x i8], [3 x i8]* @.str, i64 0, i64 0), i32* %2)
  store i32 1, i32* %4, align 4
  br label %7

7:                                                ; preds = %41, %0
  %8 = load i32, i32* %4, align 4
  %9 = load i32, i32* %2, align 4
  %10 = icmp sle i32 %8, %9
  br i1 %10, label %11, label %44

11:                                               ; preds = %7
  %12 = load i32, i32* %4, align 4
  %13 = srem i32 %12, 7
  %14 = icmp ne i32 %13, 0
  br i1 %14, label %15, label %40

15:                                               ; preds = %11
  %16 = load i32, i32* %4, align 4
  store i32 %16, i32* %5, align 4
  br label %17

17:                                               ; preds = %36, %15
  %18 = load i32, i32* %5, align 4
  %19 = icmp sgt i32 %18, 0
  br i1 %19, label %20, label %39

20:                                               ; preds = %17
  %21 = load i32, i32* %5, align 4
  %22 = srem i32 %21, 10
  %23 = icmp eq i32 %22, 7
  br i1 %23, label %24, label %25

24:                                               ; preds = %20
  br label %39

25:                                               ; preds = %20
  %26 = load i32, i32* %5, align 4
  %27 = sdiv i32 %26, 10
  %28 = icmp eq i32 %27, 0
  br i1 %28, label %29, label %35

29:                                               ; preds = %25
  %30 = load i32, i32* %4, align 4
  %31 = load i32, i32* %4, align 4
  %32 = mul nsw i32 %30, %31
  %33 = load i32, i32* %3, align 4
  %34 = add nsw i32 %33, %32
  store i32 %34, i32* %3, align 4
  br label %35

35:                                               ; preds = %29, %25
  br label %36

36:                                               ; preds = %35
  %37 = load i32, i32* %5, align 4
  %38 = sdiv i32 %37, 10
  store i32 %38, i32* %5, align 4
  br label %17

39:                                               ; preds = %24, %17
  br label %40

40:                                               ; preds = %39, %11
  br label %41

41:                                               ; preds = %40
  %42 = load i32, i32* %4, align 4
  %43 = add nsw i32 %42, 1
  store i32 %43, i32* %4, align 4
  br label %7

44:                                               ; preds = %7
  %45 = load i32, i32* %3, align 4
  %46 = call i32 (i8*, ...) @printf(i8* getelementptr inbounds ([3 x i8], [3 x i8]* @.str, i64 0, i64 0), i32 %45)
  ret i32 0
}

declare dso_local i32 @__isoc99_scanf(i8*, ...) #1

declare dso_local i32 @printf(i8*, ...) #1


!llvm.module.flags = !{!0}
!llvm.ident = !{!1}

!0 = !{i32 1, !"wchar_size", i32 4}
!1 = !{!"clang version 10.0.0-4ubuntu1 "}
